; Function Attrs: mustprogress nounwind uwtable
define hidden noundef zeroext i1 @_ZN8PSOldGen18expand_to_reservedEv(ptr noundef nonnull align 8 dereferenceable(128) %0) local_unnamed_addr #0 align 2 {
  %2 = getelementptr inbounds i8, ptr %0, i64 8
  %3 = load ptr, ptr %2, align 8
  %4 = getelementptr inbounds i8, ptr %3, i64 24
  %5 = load ptr, ptr %4, align 8
  %6 = getelementptr inbounds i8, ptr %3, i64 16
  %7 = load ptr, ptr %6, align 8
  %8 = ptrtoint ptr %5 to i64
  %9 = ptrtoint ptr %7 to i64
  %10 = getelementptr inbounds i8, ptr %3, i64 40
  %11 = load ptr, ptr %10, align 8
  %12 = getelementptr inbounds i8, ptr %3, i64 32
  %13 = load ptr, ptr %12, align 8
  %14 = ptrtoint ptr %11 to i64
  %15 = ptrtoint ptr %13 to i64
  %16 = add i64 %9, %14
  %17 = sub i64 %8, %16
  %18 = add i64 %17, %15
  %.not = icmp eq i64 %18, 0
  br i1 %.not, label %21, label %19

19:                                               ; preds = %1
  %20 = tail call noundef zeroext i1 @_ZN8PSOldGen9expand_byEm(ptr noundef nonnull align 8 dereferenceable(128) %0, i64 noundef %18)
  br label %21

21:                                               ; preds = %19, %1
  %.0 = phi i1 [ %20, %19 ], [ false, %1 ]
  ret i1 %.0
}